target datalayout = "e-m:e-p270:32:32-p271:32:32-p272:64:64-i64:64-i128:128-f80:128-n8:16:32:64-S128"
target triple = "x86_64-pc-linux-gnu"

; Function Attrs: mustprogress nounwind uwtable
define noundef i32 @_ZN3g2o8internal3g2o8internal4_q2mERdS3_RKdS5_S5_S5_S5_S5_S5_S5_S5_(ptr noundef nonnull align 8 dereferenceable(8) %0, ptr noundef nonnull align 8 dereferenceable(8) %1, ptr noundef nonnull align 8 dereferenceable(8) %2, ptr noundef nonnull align 8 dereferenceable(8) %3, ptr noundef nonnull align 8 dereferenceable(8) %4, ptr noundef nonnull align 8 dereferenceable(8) %5, ptr noundef nonnull align 8 dereferenceable(8) %6, ptr noundef nonnull align 8 dereferenceable(8) %7, ptr noundef nonnull align 8 dereferenceable(8) %8, ptr noundef nonnull align 8 dereferenceable(8) %9, ptr noundef nonnull align 8 dereferenceable(8) %10) #1 {
  %12 = alloca i32, align 4
  %13 = alloca ptr, align 8
  %14 = alloca ptr, align 8
  %15 = alloca ptr, align 8
  %16 = alloca ptr, align 8
  %17 = alloca ptr, align 8
  %18 = alloca ptr, align 8
  %19 = alloca ptr, align 8
  %20 = alloca ptr, align 8
  %21 = alloca ptr, align 8
  %22 = alloca ptr, align 8
  %23 = alloca ptr, align 8
  %24 = alloca double, align 8
  %25 = alloca i32, align 4
  store ptr %0, ptr %13, align 8, !tbaa !16
  store ptr %1, ptr %14, align 8, !tbaa !16
  store ptr %2, ptr %15, align 8, !tbaa !16
  store ptr %3, ptr %16, align 8, !tbaa !16
  store ptr %4, ptr %17, align 8, !tbaa !16
  store ptr %5, ptr %18, align 8, !tbaa !16
  store ptr %6, ptr %19, align 8, !tbaa !16
  store ptr %7, ptr %20, align 8, !tbaa !16
  store ptr %8, ptr %21, align 8, !tbaa !16
  store ptr %9, ptr %22, align 8, !tbaa !16
  store ptr %10, ptr %23, align 8, !tbaa !16
  call void @llvm.lifetime.start.p0(i64 8, ptr %24) #6
  %26 = load ptr, ptr %15, align 8, !tbaa !16
  %27 = load double, ptr %26, align 8, !tbaa !18
  %28 = load ptr, ptr %19, align 8, !tbaa !16
  %29 = load double, ptr %28, align 8, !tbaa !18
  %30 = fadd double %27, %29
  %31 = load ptr, ptr %23, align 8, !tbaa !16
  %32 = load double, ptr %31, align 8, !tbaa !18
  %33 = fadd double %30, %32
  store double %33, ptr %24, align 8, !tbaa !18
  %34 = load double, ptr %24, align 8, !tbaa !18
  %35 = fcmp ogt double %34, 0.000000e+00
  br i1 %35, label %36, label %46

36:                                               ; preds = %11
  %37 = load double, ptr %24, align 8, !tbaa !18
  %38 = fadd double %37, 1.000000e+00
  %39 = call double @sqrt(double noundef %38) #6, !tbaa !20
  %40 = fmul double %39, 2.000000e+00
  %41 = load ptr, ptr %13, align 8, !tbaa !16
  store double %40, ptr %41, align 8, !tbaa !18
  %42 = load ptr, ptr %13, align 8, !tbaa !16
  %43 = load double, ptr %42, align 8, !tbaa !18
  %44 = fmul double 2.500000e-01, %43
  %45 = load ptr, ptr %14, align 8, !tbaa !16
  store double %44, ptr %45, align 8, !tbaa !18
  store i32 0, ptr %12, align 4
  store i32 1, ptr %25, align 4
  br label %133

46:                                               ; preds = %11
  %47 = load ptr, ptr %15, align 8, !tbaa !16
  %48 = load double, ptr %47, align 8, !tbaa !18
  %49 = load ptr, ptr %19, align 8, !tbaa !16
  %50 = load double, ptr %49, align 8, !tbaa !18
  %51 = fcmp ogt double %48, %50
  %52 = zext i1 %51 to i32
  %53 = load ptr, ptr %15, align 8, !tbaa !16
  %54 = load double, ptr %53, align 8, !tbaa !18
  %55 = load ptr, ptr %23, align 8, !tbaa !16
  %56 = load double, ptr %55, align 8, !tbaa !18
  %57 = fcmp ogt double %54, %56
  %58 = zext i1 %57 to i32
  %59 = and i32 %52, %58
  %60 = icmp ne i32 %59, 0
  br i1 %60, label %61, label %83

61:                                               ; preds = %46
  %62 = load ptr, ptr %15, align 8, !tbaa !16
  %63 = load double, ptr %62, align 8, !tbaa !18
  %64 = fadd double 1.000000e+00, %63
  %65 = load ptr, ptr %19, align 8, !tbaa !16
  %66 = load double, ptr %65, align 8, !tbaa !18
  %67 = fsub double %64, %66
  %68 = load ptr, ptr %23, align 8, !tbaa !16
  %69 = load double, ptr %68, align 8, !tbaa !18
  %70 = fsub double %67, %69
  %71 = call double @sqrt(double noundef %70) #6, !tbaa !20
  %72 = fmul double %71, 2.000000e+00
  %73 = load ptr, ptr %13, align 8, !tbaa !16
  store double %72, ptr %73, align 8, !tbaa !18
  %74 = load ptr, ptr %20, align 8, !tbaa !16
  %75 = load double, ptr %74, align 8, !tbaa !18
  %76 = load ptr, ptr %22, align 8, !tbaa !16
  %77 = load double, ptr %76, align 8, !tbaa !18
  %78 = fsub double %75, %77
  %79 = load ptr, ptr %13, align 8, !tbaa !16
  %80 = load double, ptr %79, align 8, !tbaa !18
  %81 = fdiv double %78, %80
  %82 = load ptr, ptr %14, align 8, !tbaa !16
  store double %81, ptr %82, align 8, !tbaa !18
  store i32 1, ptr %12, align 4
  store i32 1, ptr %25, align 4
  br label %133

83:                                               ; preds = %46
  %84 = load ptr, ptr %19, align 8, !tbaa !16
  %85 = load double, ptr %84, align 8, !tbaa !18
  %86 = load ptr, ptr %23, align 8, !tbaa !16
  %87 = load double, ptr %86, align 8, !tbaa !18
  %88 = fcmp ogt double %85, %87
  br i1 %88, label %89, label %111

89:                                               ; preds = %83
  %90 = load ptr, ptr %19, align 8, !tbaa !16
  %91 = load double, ptr %90, align 8, !tbaa !18
  %92 = fadd double 1.000000e+00, %91
  %93 = load ptr, ptr %15, align 8, !tbaa !16
  %94 = load double, ptr %93, align 8, !tbaa !18
  %95 = fsub double %92, %94
  %96 = load ptr, ptr %23, align 8, !tbaa !16
  %97 = load double, ptr %96, align 8, !tbaa !18
  %98 = fsub double %95, %97
  %99 = call double @sqrt(double noundef %98) #6, !tbaa !20
  %100 = fmul double %99, 2.000000e+00
  %101 = load ptr, ptr %13, align 8, !tbaa !16
  store double %100, ptr %101, align 8, !tbaa !18
  %102 = load ptr, ptr %21, align 8, !tbaa !16
  %103 = load double, ptr %102, align 8, !tbaa !18
  %104 = load ptr, ptr %17, align 8, !tbaa !16
  %105 = load double, ptr %104, align 8, !tbaa !18
  %106 = fsub double %103, %105
  %107 = load ptr, ptr %13, align 8, !tbaa !16
  %108 = load double, ptr %107, align 8, !tbaa !18
  %109 = fdiv double %106, %108
  %110 = load ptr, ptr %14, align 8, !tbaa !16
  store double %109, ptr %110, align 8, !tbaa !18
  store i32 2, ptr %12, align 4
  store i32 1, ptr %25, align 4
  br label %133

111:                                              ; preds = %83
  %112 = load ptr, ptr %23, align 8, !tbaa !16
  %113 = load double, ptr %112, align 8, !tbaa !18
  %114 = fadd double 1.000000e+00, %113
  %115 = load ptr, ptr %15, align 8, !tbaa !16
  %116 = load double, ptr %115, align 8, !tbaa !18
  %117 = fsub double %114, %116
  %118 = load ptr, ptr %19, align 8, !tbaa !16
  %119 = load double, ptr %118, align 8, !tbaa !18
  %120 = fsub double %117, %119
  %121 = call double @sqrt(double noundef %120) #6, !tbaa !20
  %122 = fmul double %121, 2.000000e+00
  %123 = load ptr, ptr %13, align 8, !tbaa !16
  store double %122, ptr %123, align 8, !tbaa !18
  %124 = load ptr, ptr %16, align 8, !tbaa !16
  %125 = load double, ptr %124, align 8, !tbaa !18
  %126 = load ptr, ptr %18, align 8, !tbaa !16
  %127 = load double, ptr %126, align 8, !tbaa !18
  %128 = fsub double %125, %127
  %129 = load ptr, ptr %13, align 8, !tbaa !16
  %130 = load double, ptr %129, align 8, !tbaa !18
  %131 = fdiv double %128, %130
  %132 = load ptr, ptr %14, align 8, !tbaa !16
  store double %131, ptr %132, align 8, !tbaa !18
  store i32 3, ptr %12, align 4
  store i32 1, ptr %25, align 4
  br label %133

133:                                              ; preds = %111, %89, %61, %36
  call void @llvm.lifetime.end.p0(i64 8, ptr %24) #6
  %134 = load i32, ptr %12, align 4
  ret i32 %134
}